target datalayout = "e-m:e-p270:32:32-p271:32:32-p272:64:64-i64:64-i128:128-f80:128-n8:16:32:64-S128"
target triple = "x86_64-pc-linux-gnu"

%struct.gmx_ana_selparam_t = type { ptr, %struct.gmx_ana_selvalue_t, ptr, i32 }
%struct.gmx_ana_selvalue_t = type { i32, i32, %union.anon, i32 }
%union.anon = type { ptr }
%struct.methoddata_merge = type { %struct.gmx_ana_pos_t, %struct.gmx_ana_pos_t, i32, [4 x i8] }
%struct.gmx_ana_pos_t = type <{ ptr, ptr, ptr, %struct.gmx_ana_indexmap_t, i32, [4 x i8] }>
%struct.gmx_ana_indexmap_t = type { i32, ptr, ptr, %struct.t_blocka, ptr, %struct.t_blocka, i8 }
%struct.t_blocka = type { i32, ptr, i32, ptr, i32, i32 }

; Function Attrs: inlinehint mustprogress uwtable
define linkonce_odr void @_ZN16methoddata_mergeC2Ev(ptr noundef nonnull align 8 dereferenceable(308) %0) unnamed_addr #5 comdat align 2 personality ptr @__gxx_personality_v0 {
  %2 = alloca ptr, align 8
  %3 = alloca ptr, align 8
  %4 = alloca i32, align 4
  store ptr %0, ptr %2, align 8, !tbaa !11
  %5 = load ptr, ptr %2, align 8
  %6 = getelementptr inbounds nuw %struct.methoddata_merge, ptr %5, i32 0, i32 0
  call void @_ZN13gmx_ana_pos_tC1Ev(ptr noundef nonnull align 8 dereferenceable(148) %6)
  %7 = getelementptr inbounds nuw %struct.methoddata_merge, ptr %5, i32 0, i32 1
  invoke void @_ZN13gmx_ana_pos_tC1Ev(ptr noundef nonnull align 8 dereferenceable(148) %7)
          to label %8 unwind label %9

8:                                                ; preds = %1
  ret void

9:                                                ; preds = %1
  %10 = landingpad { ptr, i32 }
          cleanup
  %11 = extractvalue { ptr, i32 } %10, 0
  store ptr %11, ptr %3, align 8
  %12 = extractvalue { ptr, i32 } %10, 1
  store i32 %12, ptr %4, align 4
  call void @_ZN13gmx_ana_pos_tD1Ev(ptr noundef nonnull align 8 dereferenceable(148) %6) #18
  br label %13

13:                                               ; preds = %9
  %14 = load ptr, ptr %3, align 8
  %15 = load i32, ptr %4, align 4
  %16 = insertvalue { ptr, i32 } poison, ptr %14, 0
  %17 = insertvalue { ptr, i32 } %16, i32 %15, 1
  resume { ptr, i32 } %17
}

; Function Attrs: mustprogress uwtable
define internal noundef ptr @_ZL15init_data_mergeiP18gmx_ana_selparam_t(i32 noundef %0, ptr noundef %1) #0 personality ptr @__gxx_personality_v0 {
  %3 = alloca i32, align 4
  %4 = alloca ptr, align 8
  %5 = alloca ptr, align 8
  %6 = alloca ptr, align 8
  %7 = alloca i32, align 4
  store i32 %0, ptr %3, align 4, !tbaa !4
  store ptr %1, ptr %4, align 8, !tbaa !8
  call void @llvm.lifetime.start.p0(i64 8, ptr %5) #18
  %8 = call noalias noundef nonnull ptr @_Znwm(i64 noundef 312) #19
  call void @llvm.memset.p0.i64(ptr align 16 %8, i8 0, i64 312, i1 false)
  invoke void @_ZN16methoddata_mergeC2Ev(ptr noundef nonnull align 8 dereferenceable(308) %8)
          to label %9 unwind label %33

9:                                                ; preds = %2
  store ptr %8, ptr %5, align 8, !tbaa !11
  %10 = load ptr, ptr %5, align 8, !tbaa !11
  %11 = getelementptr inbounds nuw %struct.methoddata_merge, ptr %10, i32 0, i32 2
  store i32 0, ptr %11, align 8, !tbaa !13
  %12 = load ptr, ptr %5, align 8, !tbaa !11
  %13 = getelementptr inbounds nuw %struct.methoddata_merge, ptr %12, i32 0, i32 0
  %14 = load ptr, ptr %4, align 8, !tbaa !8
  %15 = getelementptr inbounds %struct.gmx_ana_selparam_t, ptr %14, i64 0
  %16 = getelementptr inbounds nuw %struct.gmx_ana_selparam_t, ptr %15, i32 0, i32 1
  %17 = getelementptr inbounds nuw %struct.gmx_ana_selvalue_t, ptr %16, i32 0, i32 2
  store ptr %13, ptr %17, align 8, !tbaa !22
  %18 = load ptr, ptr %5, align 8, !tbaa !11
  %19 = getelementptr inbounds nuw %struct.methoddata_merge, ptr %18, i32 0, i32 1
  %20 = load ptr, ptr %4, align 8, !tbaa !8
  %21 = getelementptr inbounds %struct.gmx_ana_selparam_t, ptr %20, i64 1
  %22 = getelementptr inbounds nuw %struct.gmx_ana_selparam_t, ptr %21, i32 0, i32 1
  %23 = getelementptr inbounds nuw %struct.gmx_ana_selvalue_t, ptr %22, i32 0, i32 2
  store ptr %19, ptr %23, align 8, !tbaa !22
  %24 = load i32, ptr %3, align 4, !tbaa !4
  %25 = icmp sgt i32 %24, 2
  br i1 %25, label %26, label %37

26:                                               ; preds = %9
  %27 = load ptr, ptr %5, align 8, !tbaa !11
  %28 = getelementptr inbounds nuw %struct.methoddata_merge, ptr %27, i32 0, i32 2
  %29 = load ptr, ptr %4, align 8, !tbaa !8
  %30 = getelementptr inbounds %struct.gmx_ana_selparam_t, ptr %29, i64 2
  %31 = getelementptr inbounds nuw %struct.gmx_ana_selparam_t, ptr %30, i32 0, i32 1
  %32 = getelementptr inbounds nuw %struct.gmx_ana_selvalue_t, ptr %31, i32 0, i32 2
  store ptr %28, ptr %32, align 8, !tbaa !22
  br label %37

33:                                               ; preds = %2
  %34 = landingpad { ptr, i32 }
          cleanup
  %35 = extractvalue { ptr, i32 } %34, 0
  store ptr %35, ptr %6, align 8
  %36 = extractvalue { ptr, i32 } %34, 1
  store i32 %36, ptr %7, align 4
  call void @_ZdlPvm(ptr noundef %8, i64 noundef 312) #20
  call void @llvm.lifetime.end.p0(i64 8, ptr %5) #18
  br label %39

37:                                               ; preds = %26, %9
  %38 = load ptr, ptr %5, align 8, !tbaa !11
  call void @llvm.lifetime.end.p0(i64 8, ptr %5) #18
  ret ptr %38

39:                                               ; preds = %33
  %40 = load ptr, ptr %6, align 8
  %41 = load i32, ptr %7, align 4
  %42 = insertvalue { ptr, i32 } poison, ptr %40, 0
  %43 = insertvalue { ptr, i32 } %42, i32 %41, 1
  resume { ptr, i32 } %43
}