; Function Attrs: mustprogress uwtable
define internal noundef nonnull ptr @_ZL15init_data_mergeiP18gmx_ana_selparam_t(i32 noundef %0, ptr noundef writeonly captures(none) %1) #0 personality ptr @__gxx_personality_v0 {
  %3 = tail call noalias noundef nonnull dereferenceable(312) ptr @_Znwm(i64 noundef 312) #16
  tail call void @llvm.memset.p0.i64(ptr noundef nonnull align 16 dereferenceable(312) %3, i8 0, i64 312, i1 false)
  invoke void @_ZN13gmx_ana_pos_tC1Ev(ptr noundef nonnull align 8 dereferenceable(308) %3)
          to label %.noexc unwind label %13

.noexc:                                           ; preds = %2
  %4 = getelementptr inbounds nuw i8, ptr %3, i64 152
  invoke void @_ZN13gmx_ana_pos_tC1Ev(ptr noundef nonnull align 8 dereferenceable(148) %4)
          to label %_ZN16methoddata_mergeC2Ev.exit unwind label %5

5:                                                ; preds = %.noexc
  %6 = landingpad { ptr, i32 }
          cleanup
  tail call void @_ZN13gmx_ana_pos_tD1Ev(ptr noundef nonnull align 8 dereferenceable(308) %3) #17
  br label %.body

_ZN16methoddata_mergeC2Ev.exit:                   ; preds = %.noexc
  %7 = getelementptr inbounds nuw i8, ptr %3, i64 304
  store i32 0, ptr %7, align 8, !tbaa !4
  %8 = getelementptr inbounds nuw i8, ptr %1, i64 16
  store ptr %3, ptr %8, align 8, !tbaa !17
  %9 = getelementptr inbounds nuw i8, ptr %1, i64 64
  store ptr %4, ptr %9, align 8, !tbaa !17
  %10 = icmp sgt i32 %0, 2
  br i1 %10, label %11, label %15

11:                                               ; preds = %_ZN16methoddata_mergeC2Ev.exit
  %12 = getelementptr inbounds nuw i8, ptr %1, i64 112
  store ptr %7, ptr %12, align 8, !tbaa !17
  br label %15

13:                                               ; preds = %2
  %14 = landingpad { ptr, i32 }
          cleanup
  br label %.body

.body:                                            ; preds = %5, %13
  %eh.lpad-body = phi { ptr, i32 } [ %14, %13 ], [ %6, %5 ]
  tail call void @_ZdlPvm(ptr noundef nonnull %3, i64 noundef 312) #18
  resume { ptr, i32 } %eh.lpad-body

15:                                               ; preds = %11, %_ZN16methoddata_mergeC2Ev.exit
  ret ptr %3
}